(dp0
Vtagprogress
p1
(dp2
S'/Volumes/shmbox/_music'
p3
(lp4
S"/Volumes/shmbox/_music/0815 - 1984 1000 Gelbe Tennisbaelle [7'' GER]"
p5
aS"/Volumes/shmbox/_music/1. Futurologischer Congress - 1981 Heimatlied [7'']"
p6
aS"/Volumes/shmbox/_music/1. Futurologischer Congress - 1981 Posthum [7'']"
p7
aS"/Volumes/shmbox/_music/1. Futurologischer Congress - 1982 Rote Autos [7'' GER]"
p8
aS'/Volumes/shmbox/_music/1. Futurologischer Congress - 1982 Schu\xcc\x88tzt Die Verliebten [LP GER]'
p9
aS"/Volumes/shmbox/_music/1000 Ohm - 1982 A.G.N.E.S. [7'']"
p10
aS'/Volumes/shmbox/_music/1000 Ohm - Div'
p11
aS'/Volumes/shmbox/_music/1000 Robota - 2010 Ufo'
p12
aS'/Volumes/shmbox/_music/13 Candles - 2003 Killing For Culture [EP]'
p13
aS"/Volumes/shmbox/_music/13th Chime - 1981 Cuts Of Love [7'']"
p14
aS"/Volumes/shmbox/_music/13th Chime - 1982 Cursed [7'']"
p15
aS'/Volumes/shmbox/_music/13th Moon - 2008 Dance To The Death [EP]'
p16
aS'/Volumes/shmbox/_music/18e Oktober - 1985 Hybris [C30 nk004c]'
p17
aS'/Volumes/shmbox/_music/1919 - 1982 Caged [EP]'
p18
aS'/Volumes/shmbox/_music/1919 - 1982 Repulsion [EP]'
p19
aS'/Volumes/shmbox/_music/1919 - 1983 Cry Wolf [EP]'
p20
aS"/Volumes/shmbox/_music/2 Belgen - 1985 Queen Of Mine [12'']"
p21
aS"/Volumes/shmbox/_music/2 Belgen - 1995 Lena ('95 Remixes)"
p22
aS'/Volumes/shmbox/_music/2+2=5 - 1983 Geisha [EP]'
p23
aS'/Volumes/shmbox/_music/2+2=5 - 1984 Into The Future [LP]'
p24
aS'/Volumes/shmbox/_music/2+2=5 - 19xx Love And Hate [MLP]'
p25
aS'/Volumes/shmbox/_music/254 - 2014 The Other I'
p26
aS'/Volumes/shmbox/_music/2Raumwohnung - 2001 Kommt Zusammen'
p27
aS'/Volumes/shmbox/_music/2Raumwohnung - Div'
p28
aS"/Volumes/shmbox/_music/2VM - 2005 Placita [7'']"
p29
aS'/Volumes/shmbox/_music/2VM - 2007 Demos'
p30
aS'/Volumes/shmbox/_music/2VM - 200x Demos'
p31
aS'/Volumes/shmbox/_music/2raumwohnung - 2002 Es Wird Morgen'
p32
aS'/Volumes/shmbox/_music/2raumwohnung - 2002 In Wirklich'
p33
aS'/Volumes/shmbox/_music/2raumwohnung - 2005 Melancholisch Scho\xcc\x88n'
p34
aS'/Volumes/shmbox/_music/2raumwohnung - 2007 36Grad'
p35
aS'/Volumes/shmbox/_music/30 Seconds To Mars - 2002 30 Seconds To Mars'
p36
aS'/Volumes/shmbox/_music/30 Seconds To Mars - 2005 A Beautiful Lie'
p37
aS'/Volumes/shmbox/_music/45 Grave - 1983 12 EP (Enigma) [EP]'
p38
aS'/Volumes/shmbox/_music/500 Days Of Summer - 2009 OST'
p39
aS'/Volumes/shmbox/_music/A & P - 1982 Links Rechts [EP Soilant]'
p40
aS'/Volumes/shmbox/_music/A Blaze Colour - 1982 Demo [MC]'
p41
aS"/Volumes/shmbox/_music/A Blaze Colour - 1982 The New Ones [12'']"
p42
aS'/Volumes/shmbox/_music/A Certain Ratio - 1980 The Graveyard And The Ballroom [LP fact16]'
p43
aS'/Volumes/shmbox/_music/A Fine Frenzy - 2008 One Cell In The Sea'
p44
aS'/Volumes/shmbox/_music/A Flock Of Seagulls - 1993 The Best Of'
p45
aS'/Volumes/shmbox/_music/A Place To Bury Strangers - 2005 A Place To Bury Strangers'
p46
aS'/Volumes/shmbox/_music/A Place To Bury Strangers - 2006 Breathe [EP]'
p47
aS'/Volumes/shmbox/_music/A Place To Bury Strangers - 2006 Never Going Down [EP]'
p48
aS'/Volumes/shmbox/_music/A Place To Bury Strangers - 2007 A Place To Bury Strangers'
p49
aS'/Volumes/shmbox/_music/A Place To Bury Strangers - 2007 Live In Studio SXSW Strange Glue'
p50
aS"/Volumes/shmbox/_music/A Place To Bury Strangers - 2008 I Know I'll See You"
p51
aS'/Volumes/shmbox/_music/A Place To Bury Strangers - 2008 To Fix The Gash In Your Head'
p52
aS'/Volumes/shmbox/_music/A Place To Bury Strangers - 2008 To Fix The Gash In Your Head [EP]'
p53
aS'/Volumes/shmbox/_music/A Place To Bury Strangers - 2009 Exploding Head'
p54
aS'/Volumes/shmbox/_music/A Place To Bury Strangers - 2009 Missing You [EP]'
p55
aS'/Volumes/shmbox/_music/A Place To Bury Strangers - 2010 Ego Death 2010 Tour [EP]'
p56
aS'/Volumes/shmbox/_music/A Place To Bury Strangers - 2010 I Lived My Life To Stand In The Shadow Of Your Heart [EP]'
p57
aS'/Volumes/shmbox/_music/A Place To Bury Strangers - 2012 Onwards To The Wall [EP]'
p58
aS'/Volumes/shmbox/_music/A Place to Bury Strangers - 2007 A Place To Bury Strangers (Killer Pimp)'
p59
aS'/Volumes/shmbox/_music/_Lossless/1978.11.22 De Montford Hall Liverpool, UK dimitroy FLAC'
p60
aS'/Volumes/shmbox/_music/_Lossless/1978.11.22 De Montford Hall Liverpool, UK dimitroy FLAC/The Sisters Of Mercy - 1984.05.02 Nottingham, Rock City FLAC'
p61
aS'/Volumes/shmbox/_music/_Lossless/1978.11.22 De Montford Hall Liverpool, UK dimitroy FLAC/The Sisters Of Mercy - 1984.05.04 - Manchester, University FLAC'
p62
aS'/Volumes/shmbox/_music/_Lossless/1997_08_31 Hildesheim, Zillo-Festival (FLAC)'
p63
aS'/Volumes/shmbox/_music/_Lossless/Cranes 1995-08-06 - Benicassim Festival, Spain'
p64
aS'/Volumes/shmbox/_music/_Lossless/DAF - 2 LP VINYL BOOTLEG  FLAC'
p65
aS"/Volumes/shmbox/_music/_Lossless/Fields Of The Nephilim - Shepherd's Bush Empire, London, England - 05 December 2014"
p66
aS"/Volumes/shmbox/_music/_Lossless/Fields Of The Nephilim - Shepherd's Bush Empire, London, England - 06 December 2014"
p67
aS'/Volumes/shmbox/_music/_Lossless/Joy Division studio sessions'
p68
aS'/Volumes/shmbox/_music/_Lossless/Joy Division,London 22.sep.1979'
p69
aS'/Volumes/shmbox/_music/_Lossless/JoyDivision'
p70
aS'/Volumes/shmbox/_music/_Lossless/New Order - 1983_07-07 New York, NY (Ceremony bootleg)'
p71
aS'/Volumes/shmbox/_music/_Lossless/Skinny Puppy - 2014 BRAPs & IMPROVisations 1985-2010 FLAC'
p72
aS'/Volumes/shmbox/_music/_Lossless/Soror Dolorosa - 2011-06-11 Leipzig, WGT, Felsenkeller'
p73
aS'/Volumes/shmbox/_music/_Lossless/The Chameleons 1986-10-23 Batschkapp, Frankfurt'
p74
aS'/Volumes/shmbox/_music/_Lossless/ccrows.1994-05-07.flac'
p75
aS'/Volumes/shmbox/_music/_Lossless/lie\xcc\x81 - 2014 CONSENT-2'
p76
aS'/Volumes/shmbox/_music/_Various/___old/19xx New Wave Club Class-X Vol. 01'
p77
aS'/Volumes/shmbox/_music/_Various/___old/19xx New Wave Club Class-X Vol. 02'
p78
ass.